Certificate:
    Data:
        Version: 3 (0x2)
        Serial Number: 2 (0x2)
    Signature Algorithm: sha256WithRSAEncryption
        Issuer: C=CN, ST=Zhejiang, L=Hangzhou, O=Company, OU=Department, CN=domain
        Validity
            Not Before: Mar 10 15:37:58 2021 GMT
            Not After : Mar 10 15:37:58 2022 GMT
        Subject: C=CN, ST=Zhejiang, L=Hangzhou, O=Company, OU=Department, CN=aaa
        Subject Public Key Info:
            Public Key Algorithm: rsaEncryption
                Public-Key: (1024 bit)
                Modulus:
                    00:bd:6f:de:f9:d9:d9:2d:3e:51:59:3a:7c:c7:ab:
                    7d:20:2f:d5:b4:47:90:77:1e:6a:5e:13:56:a4:88:
                    bb:69:16:a0:49:14:d0:ec:4d:26:9e:b6:c5:01:9e:
                    a8:ad:f1:41:3e:2d:fc:a0:9b:9c:66:a7:92:17:1e:
                    db:89:bd:55:50:33:97:82:a5:36:1d:5d:b9:a8:4f:
                    61:dc:a8:95:3b:05:45:b2:51:73:c9:5c:4e:cd:62:
                    56:db:ad:2d:45:80:5f:5c:8a:99:bc:d9:f3:0b:ae:
                    0e:9f:03:cc:29:85:55:c6:4c:79:ce:f1:85:8b:72:
                    d8:2f:5a:64:46:3f:13:3c:35
                Exponent: 65537 (0x10001)
        X509v3 extensions:
            X509v3 Basic Constraints: 
                CA:FALSE
            Netscape Comment: 
                OpenSSL Generated Certificate
            X509v3 Subject Key Identifier: 
                85:6D:0D:CC:0C:89:02:F1:77:B1:D7:B5:9E:B0:FC:44:FA:16:85:8B
            X509v3 Authority Key Identifier: 
                keyid:18:15:D2:CC:4E:42:D9:B7:FA:7E:34:E1:D6:AB:30:80:56:52:6D:27

    Signature Algorithm: sha256WithRSAEncryption
         40:03:ab:b0:78:3f:52:c4:d0:50:17:5e:e1:30:88:c0:1a:40:
         ea:e9:d1:f8:f8:26:02:b1:cf:0e:f7:74:7b:ac:fd:26:df:0f:
         73:97:2c:df:54:58:61:8d:c1:b8:d0:7f:6b:9b:67:c4:0a:02:
         f9:f6:95:cc:94:b4:be:ba:64:25:a5:f5:65:01:b5:74:75:29:
         97:c4:86:17:91:76:e0:af:38:0e:2c:88:7e:e5:e5:7e:95:01:
         81:85:8a:c2:07:15:45:84:1b:74:6b:97:5d:4e:19:90:a2:44:
         cf:7e:cf:de:c3:98:14:4f:70:f5:8f:b0:cc:11:77:2c:db:b0:
         08:e0:81:61:ed:9d:37:97:b2:5c:fa:07:75:3e:61:fa:00:d6:
         5c:f5:35:c9:8f:38:b2:3a:15:7e:47:26:02:f9:46:a6:d2:de:
         e1:3b:9d:57:6e:2d:03:2e:17:40:88:2e:14:f9:43:48:43:23:
         10:6a:64:e5:ea:0f:8e:68:bf:7d:48:e7:07:26:a1:c6:a6:fb:
         9e:17:c2:78:7a:36:29:5b:f5:9b:67:ee:2e:df:e6:0e:cb:33:
         41:75:e7:6d:4b:6f:e1:df:27:24:ec:74:71:05:6e:19:d2:62:
         97:03:7e:a0:08:8f:3b:76:ac:72:d8:77:d1:58:a8:35:c0:cc:
         d7:7f:8f:44
-----BEGIN CERTIFICATE-----
MIIDRTCCAi2gAwIBAgIBAjANBgkqhkiG9w0BAQsFADBrMQswCQYDVQQGEwJDTjER
MA8GA1UECAwIWmhlamlhbmcxETAPBgNVBAcMCEhhbmd6aG91MRAwDgYDVQQKDAdD
b21wYW55MRMwEQYDVQQLDApEZXBhcnRtZW50MQ8wDQYDVQQDDAZkb21haW4wHhcN
MjEwMzEwMTUzNzU4WhcNMjIwMzEwMTUzNzU4WjBoMQswCQYDVQQGEwJDTjERMA8G
A1UECAwIWmhlamlhbmcxETAPBgNVBAcMCEhhbmd6aG91MRAwDgYDVQQKDAdDb21w
YW55MRMwEQYDVQQLDApEZXBhcnRtZW50MQwwCgYDVQQDDANhYWEwgZ8wDQYJKoZI
hvcNAQEBBQADgY0AMIGJAoGBAL1v3vnZ2S0+UVk6fMerfSAv1bRHkHceal4TVqSI
u2kWoEkU0OxNJp62xQGeqK3xQT4t/KCbnGankhce24m9VVAzl4KlNh1duahPYdyo
lTsFRbJRc8lcTs1iVtutLUWAX1yKmbzZ8wuuDp8DzCmFVcZMec7xhYty2C9aZEY/
Ezw1AgMBAAGjezB5MAkGA1UdEwQCMAAwLAYJYIZIAYb4QgENBB8WHU9wZW5TU0wg
R2VuZXJhdGVkIENlcnRpZmljYXRlMB0GA1UdDgQWBBSFbQ3MDIkC8Xex17WesPxE
+haFizAfBgNVHSMEGDAWgBQYFdLMTkLZt/p+NOHWqzCAVlJtJzANBgkqhkiG9w0B
AQsFAAOCAQEAQAOrsHg/UsTQUBde4TCIwBpA6unR+PgmArHPDvd0e6z9Jt8Pc5cs
31RYYY3BuNB/a5tnxAoC+faVzJS0vrpkJaX1ZQG1dHUpl8SGF5F24K84DiyIfuXl
fpUBgYWKwgcVRYQbdGuXXU4ZkKJEz37P3sOYFE9w9Y+wzBF3LNuwCOCBYe2dN5ey
XPoHdT5h+gDWXPU1yY84sjoVfkcmAvlGptLe4TudV24tAy4XQIguFPlDSEMjEGpk
5eoPjmi/fUjnByahxqb7nhfCeHo2KVv1m2fuLt/mDsszQXXnbUtv4d8nJOx0cQVu
GdJilwN+oAiPO3ascth30VioNcDM13+PRA==
-----END CERTIFICATE-----
